target datalayout = "e-m:e-p270:32:32-p271:32:32-p272:64:64-i64:64-i128:128-f80:128-n8:16:32:64-S128"
target triple = "x86_64-pc-linux-gnu"

%struct.ReplyParserCallbacks = type { ptr, ptr, ptr, ptr, ptr, ptr, ptr, ptr, ptr, ptr, ptr, ptr, ptr, ptr, ptr, ptr }
%struct.CallReply = type { ptr, ptr, ptr, i64, i32, i32, i64, %union.anon, ptr, ptr }
%union.anon = type { %struct.anon }
%struct.anon = type { ptr, ptr }
%struct.ReplyParser = type { ptr, %struct.ReplyParserCallbacks }

; Function Attrs: nounwind uwtable
define internal void @callReplyParseCollection(ptr noundef %0, ptr noundef %1, i64 noundef %2, ptr noundef %3, i64 noundef %4) #0 {
  %6 = alloca ptr, align 8
  %7 = alloca ptr, align 8
  %8 = alloca i64, align 8
  %9 = alloca ptr, align 8
  %10 = alloca i64, align 8
  %11 = alloca i64, align 8
  %12 = alloca i32, align 4
  %13 = alloca i64, align 8
  store ptr %0, ptr %6, align 8, !tbaa !50
  store ptr %1, ptr %7, align 8, !tbaa !5
  store i64 %2, ptr %8, align 8, !tbaa !19
  store ptr %3, ptr %9, align 8, !tbaa !40
  store i64 %4, ptr %10, align 8, !tbaa !19
  %14 = load i64, ptr %8, align 8, !tbaa !19
  %15 = load ptr, ptr %7, align 8, !tbaa !5
  %16 = getelementptr inbounds nuw %struct.CallReply, ptr %15, i32 0, i32 6
  store i64 %14, ptr %16, align 8, !tbaa !20
  %17 = load i64, ptr %10, align 8, !tbaa !19
  %18 = load i64, ptr %8, align 8, !tbaa !19
  %19 = mul i64 %17, %18
  %20 = mul i64 %19, 80
  %21 = call noalias ptr @zcalloc(i64 noundef %20) #7
  %22 = load ptr, ptr %7, align 8, !tbaa !5
  %23 = getelementptr inbounds nuw %struct.CallReply, ptr %22, i32 0, i32 7
  store ptr %21, ptr %23, align 8, !tbaa !21
  call void @llvm.lifetime.start.p0(i64 8, ptr %11) #6
  store i64 0, ptr %11, align 8, !tbaa !19
  br label %24

24:                                               ; preds = %89, %5
  %25 = load i64, ptr %11, align 8, !tbaa !19
  %26 = load i64, ptr %8, align 8, !tbaa !19
  %27 = load i64, ptr %10, align 8, !tbaa !19
  %28 = mul i64 %26, %27
  %29 = icmp ult i64 %25, %28
  br i1 %29, label %31, label %30

30:                                               ; preds = %24
  store i32 2, ptr %12, align 4
  call void @llvm.lifetime.end.p0(i64 8, ptr %11) #6
  br label %93

31:                                               ; preds = %24
  call void @llvm.lifetime.start.p0(i64 8, ptr %13) #6
  store i64 0, ptr %13, align 8, !tbaa !19
  br label %32

32:                                               ; preds = %85, %31
  %33 = load i64, ptr %13, align 8, !tbaa !19
  %34 = load i64, ptr %10, align 8, !tbaa !19
  %35 = icmp ult i64 %33, %34
  br i1 %35, label %37, label %36

36:                                               ; preds = %32
  store i32 5, ptr %12, align 4
  call void @llvm.lifetime.end.p0(i64 8, ptr %13) #6
  br label %88

37:                                               ; preds = %32
  %38 = load ptr, ptr %7, align 8, !tbaa !5
  %39 = getelementptr inbounds nuw %struct.CallReply, ptr %38, i32 0, i32 0
  %40 = load ptr, ptr %39, align 8, !tbaa !27
  %41 = load ptr, ptr %7, align 8, !tbaa !5
  %42 = getelementptr inbounds nuw %struct.CallReply, ptr %41, i32 0, i32 7
  %43 = load ptr, ptr %42, align 8, !tbaa !21
  %44 = load i64, ptr %11, align 8, !tbaa !19
  %45 = load i64, ptr %13, align 8, !tbaa !19
  %46 = add i64 %44, %45
  %47 = getelementptr inbounds nuw %struct.CallReply, ptr %43, i64 %46
  %48 = getelementptr inbounds nuw %struct.CallReply, ptr %47, i32 0, i32 0
  store ptr %40, ptr %48, align 8, !tbaa !27
  %49 = load ptr, ptr %6, align 8, !tbaa !50
  %50 = load ptr, ptr %7, align 8, !tbaa !5
  %51 = getelementptr inbounds nuw %struct.CallReply, ptr %50, i32 0, i32 7
  %52 = load ptr, ptr %51, align 8, !tbaa !21
  %53 = load i64, ptr %11, align 8, !tbaa !19
  %54 = getelementptr inbounds nuw %struct.CallReply, ptr %52, i64 %53
  %55 = load i64, ptr %13, align 8, !tbaa !19
  %56 = getelementptr inbounds nuw %struct.CallReply, ptr %54, i64 %55
  %57 = call i32 @parseReply(ptr noundef %49, ptr noundef %56)
  %58 = load ptr, ptr %7, align 8, !tbaa !5
  %59 = getelementptr inbounds nuw %struct.CallReply, ptr %58, i32 0, i32 7
  %60 = load ptr, ptr %59, align 8, !tbaa !21
  %61 = load i64, ptr %11, align 8, !tbaa !19
  %62 = load i64, ptr %13, align 8, !tbaa !19
  %63 = add i64 %61, %62
  %64 = getelementptr inbounds nuw %struct.CallReply, ptr %60, i64 %63
  %65 = getelementptr inbounds nuw %struct.CallReply, ptr %64, i32 0, i32 5
  %66 = load i32, ptr %65, align 4, !tbaa !10
  %67 = or i32 %66, 2
  store i32 %67, ptr %65, align 4, !tbaa !10
  %68 = load ptr, ptr %7, align 8, !tbaa !5
  %69 = getelementptr inbounds nuw %struct.CallReply, ptr %68, i32 0, i32 7
  %70 = load ptr, ptr %69, align 8, !tbaa !21
  %71 = load i64, ptr %11, align 8, !tbaa !19
  %72 = load i64, ptr %13, align 8, !tbaa !19
  %73 = add i64 %71, %72
  %74 = getelementptr inbounds nuw %struct.CallReply, ptr %70, i64 %73
  %75 = getelementptr inbounds nuw %struct.CallReply, ptr %74, i32 0, i32 5
  %76 = load i32, ptr %75, align 4, !tbaa !10
  %77 = and i32 %76, 4
  %78 = icmp ne i32 %77, 0
  br i1 %78, label %79, label %84

79:                                               ; preds = %37
  %80 = load ptr, ptr %7, align 8, !tbaa !5
  %81 = getelementptr inbounds nuw %struct.CallReply, ptr %80, i32 0, i32 5
  %82 = load i32, ptr %81, align 4, !tbaa !10
  %83 = or i32 %82, 4
  store i32 %83, ptr %81, align 4, !tbaa !10
  br label %84

84:                                               ; preds = %79, %37
  br label %85

85:                                               ; preds = %84
  %86 = load i64, ptr %13, align 8, !tbaa !19
  %87 = add i64 %86, 1
  store i64 %87, ptr %13, align 8, !tbaa !19
  br label %32, !llvm.loop !54

88:                                               ; preds = %36
  br label %89

89:                                               ; preds = %88
  %90 = load i64, ptr %10, align 8, !tbaa !19
  %91 = load i64, ptr %11, align 8, !tbaa !19
  %92 = add i64 %91, %90
  store i64 %92, ptr %11, align 8, !tbaa !19
  br label %24, !llvm.loop !55

93:                                               ; preds = %30
  %94 = load ptr, ptr %9, align 8, !tbaa !40
  %95 = load ptr, ptr %7, align 8, !tbaa !5
  %96 = getelementptr inbounds nuw %struct.CallReply, ptr %95, i32 0, i32 2
  store ptr %94, ptr %96, align 8, !tbaa !28
  %97 = load ptr, ptr %6, align 8, !tbaa !50
  %98 = getelementptr inbounds nuw %struct.ReplyParser, ptr %97, i32 0, i32 0
  %99 = load ptr, ptr %98, align 8, !tbaa !29
  %100 = load ptr, ptr %9, align 8, !tbaa !40
  %101 = ptrtoint ptr %99 to i64
  %102 = ptrtoint ptr %100 to i64
  %103 = sub i64 %101, %102
  %104 = load ptr, ptr %7, align 8, !tbaa !5
  %105 = getelementptr inbounds nuw %struct.CallReply, ptr %104, i32 0, i32 3
  store i64 %103, ptr %105, align 8, !tbaa !41
  ret void
}

; Function Attrs: nounwind uwtable
define internal void @callReplySet(ptr noundef %0, ptr noundef %1, i64 noundef %2, ptr noundef %3) #0 {
  %5 = alloca ptr, align 8
  %6 = alloca ptr, align 8
  %7 = alloca i64, align 8
  %8 = alloca ptr, align 8
  %9 = alloca ptr, align 8
  store ptr %0, ptr %5, align 8, !tbaa !50
  store ptr %1, ptr %6, align 8, !tbaa !26
  store i64 %2, ptr %7, align 8, !tbaa !19
  store ptr %3, ptr %8, align 8, !tbaa !40
  call void @llvm.lifetime.start.p0(i64 8, ptr %9) #6
  %10 = load ptr, ptr %6, align 8, !tbaa !26
  store ptr %10, ptr %9, align 8, !tbaa !5
  %11 = load ptr, ptr %9, align 8, !tbaa !5
  %12 = getelementptr inbounds nuw %struct.CallReply, ptr %11, i32 0, i32 4
  store i32 6, ptr %12, align 8, !tbaa !16
  %13 = load ptr, ptr %5, align 8, !tbaa !50
  %14 = load ptr, ptr %9, align 8, !tbaa !5
  %15 = load i64, ptr %7, align 8, !tbaa !19
  %16 = load ptr, ptr %8, align 8, !tbaa !40
  call void @callReplyParseCollection(ptr noundef %13, ptr noundef %14, i64 noundef %15, ptr noundef %16, i64 noundef 1)
  %17 = load ptr, ptr %9, align 8, !tbaa !5
  %18 = getelementptr inbounds nuw %struct.CallReply, ptr %17, i32 0, i32 5
  %19 = load i32, ptr %18, align 4, !tbaa !10
  %20 = or i32 %19, 4
  store i32 %20, ptr %18, align 4, !tbaa !10
  call void @llvm.lifetime.end.p0(i64 8, ptr %9) #6
  ret void
}